target datalayout = "e-m:e-p270:32:32-p271:32:32-p272:64:64-i64:64-i128:128-f80:128-n8:16:32:64-S128"
target triple = "x86_64-pc-linux-gnu"

%struct.pkcs7_signer_info_st = type { ptr, ptr, ptr, ptr, ptr, ptr, ptr, ptr, ptr }

; Function Attrs: inlinehint nounwind uwtable
define internal ptr @ossl_check_X509_ATTRIBUTE_copyfunc_type(ptr noundef %0) #3 {
  %2 = alloca ptr, align 8
  store ptr %0, ptr %2, align 8, !tbaa !135
  %3 = load ptr, ptr %2, align 8, !tbaa !135
  ret ptr %3
}

; Function Attrs: inlinehint nounwind uwtable
define internal ptr @ossl_check_const_X509_ATTRIBUTE_sk_type(ptr noundef %0) #3 {
  %2 = alloca ptr, align 8
  store ptr %0, ptr %2, align 8, !tbaa !114
  %3 = load ptr, ptr %2, align 8, !tbaa !114
  ret ptr %3
}

; Function Attrs: inlinehint nounwind uwtable
define internal ptr @ossl_check_X509_ATTRIBUTE_freefunc_type(ptr noundef %0) #3 {
  %2 = alloca ptr, align 8
  store ptr %0, ptr %2, align 8, !tbaa !135
  %3 = load ptr, ptr %2, align 8, !tbaa !135
  ret ptr %3
}

; Function Attrs: inlinehint nounwind uwtable
define internal ptr @ossl_check_X509_ATTRIBUTE_sk_type(ptr noundef %0) #3 {
  %2 = alloca ptr, align 8
  store ptr %0, ptr %2, align 8, !tbaa !114
  %3 = load ptr, ptr %2, align 8, !tbaa !114
  ret ptr %3
}

; Function Attrs: nounwind uwtable
define i32 @PKCS7_set_signed_attributes(ptr noundef %0, ptr noundef %1) #0 {
  %3 = alloca i32, align 4
  %4 = alloca ptr, align 8
  %5 = alloca ptr, align 8
  store ptr %0, ptr %4, align 8, !tbaa !107
  store ptr %1, ptr %5, align 8, !tbaa !114
  %6 = load ptr, ptr %4, align 8, !tbaa !107
  %7 = getelementptr inbounds nuw %struct.pkcs7_signer_info_st, ptr %6, i32 0, i32 3
  %8 = load ptr, ptr %7, align 8, !tbaa !113
  %9 = call ptr @ossl_check_X509_ATTRIBUTE_sk_type(ptr noundef %8)
  %10 = call ptr @ossl_check_X509_ATTRIBUTE_freefunc_type(ptr noundef @X509_ATTRIBUTE_free)
  call void @OPENSSL_sk_pop_free(ptr noundef %9, ptr noundef %10)
  %11 = load ptr, ptr %5, align 8, !tbaa !114
  %12 = call ptr @ossl_check_const_X509_ATTRIBUTE_sk_type(ptr noundef %11)
  %13 = call ptr @ossl_check_X509_ATTRIBUTE_copyfunc_type(ptr noundef @X509_ATTRIBUTE_dup)
  %14 = call ptr @ossl_check_X509_ATTRIBUTE_freefunc_type(ptr noundef @X509_ATTRIBUTE_free)
  %15 = call ptr @OPENSSL_sk_deep_copy(ptr noundef %12, ptr noundef %13, ptr noundef %14)
  %16 = load ptr, ptr %4, align 8, !tbaa !107
  %17 = getelementptr inbounds nuw %struct.pkcs7_signer_info_st, ptr %16, i32 0, i32 3
  store ptr %15, ptr %17, align 8, !tbaa !113
  %18 = load ptr, ptr %4, align 8, !tbaa !107
  %19 = getelementptr inbounds nuw %struct.pkcs7_signer_info_st, ptr %18, i32 0, i32 3
  %20 = load ptr, ptr %19, align 8, !tbaa !113
  %21 = icmp eq ptr %20, null
  br i1 %21, label %22, label %23

22:                                               ; preds = %2
  store i32 0, ptr %3, align 4
  br label %24

23:                                               ; preds = %2
  store i32 1, ptr %3, align 4
  br label %24

24:                                               ; preds = %23, %22
  %25 = load i32, ptr %3, align 4
  ret i32 %25
}